; Function Attrs: inlinehint mustprogress uwtable
define internal fastcc noundef nonnull align 8 dereferenceable(8) ptr @_ZN7jsonnet8internallsERSoNS0_5Token4KindE(ptr noundef nonnull returned align 8 dereferenceable(8) %0, i32 noundef %1) unnamed_addr #7 {
  %3 = tail call noundef ptr @_ZN7jsonnet8internal5Token8toStringENS1_4KindE(i32 noundef %1)
  %.not.i = icmp eq ptr %3, null
  br i1 %.not.i, label %4, label %12

4:                                                ; preds = %2
  %5 = load ptr, ptr %0, align 8, !tbaa !15
  %6 = getelementptr i8, ptr %5, i64 -24
  %7 = load i64, ptr %6, align 8
  %8 = getelementptr inbounds i8, ptr %0, i64 %7
  %9 = getelementptr inbounds nuw i8, ptr %8, i64 32
  %10 = load i32, ptr %9, align 8, !tbaa !211
  %11 = or i32 %10, 1
  tail call void @_ZNSt9basic_iosIcSt11char_traitsIcEE5clearESt12_Ios_Iostate(ptr noundef nonnull align 8 dereferenceable(264) %8, i32 noundef %11)
  br label %_ZStlsISt11char_traitsIcEERSt13basic_ostreamIcT_ES5_PKc.exit

12:                                               ; preds = %2
  %13 = tail call noundef i64 @strlen(ptr noundef nonnull dereferenceable(1) %3) #26
  %14 = tail call noundef nonnull align 8 dereferenceable(8) ptr @_ZSt16__ostream_insertIcSt11char_traitsIcEERSt13basic_ostreamIT_T0_ES6_PKS3_l(ptr noundef nonnull align 8 dereferenceable(8) %0, ptr noundef nonnull %3, i64 noundef %13)
  br label %_ZStlsISt11char_traitsIcEERSt13basic_ostreamIcT_ES5_PKc.exit

_ZStlsISt11char_traitsIcEERSt13basic_ostreamIcT_ES5_PKc.exit: ; preds = %4, %12
  ret ptr %0
}